; Function Attrs: mustprogress nounwind uwtable
define hidden noundef zeroext i1 @_ZN7nmethod30oops_do_try_claim_weak_requestEv(ptr noundef nonnull align 8 dereferenceable(214) %0) local_unnamed_addr #0 align 2 {
  %2 = alloca %class.LogStream, align 8
  %3 = getelementptr inbounds i8, ptr %0, i64 120
  %4 = load volatile ptr, ptr %3, align 8
  %5 = icmp eq ptr %4, null
  br i1 %5, label %6, label %24

6:                                                ; preds = %1
  %7 = tail call noundef ptr asm sideeffect "lock cmpxchgq $1,($3)", "={ax},r,{ax},r,~{cc},~{memory},~{dirflag},~{fpsr},~{flags}"(ptr nonnull %0, ptr null, ptr nonnull %3) #23, !srcloc !15
  %8 = icmp eq ptr %7, null
  br i1 %8, label %9, label %24

9:                                                ; preds = %6
  call void @llvm.lifetime.start.p0(i64 160, ptr nonnull %2)
  %10 = load volatile ptr, ptr getelementptr inbounds (i8, ptr @_ZN16LogTagSetMappingILN6LogTag4typeE49ELS1_94ELS1_0ELS1_0ELS1_0ELS1_0EE7_tagsetE, i64 48), align 8
  %.not.i = icmp eq ptr %10, null
  br i1 %.not.i, label %_ZN7nmethod18oops_do_log_changeEPKc.exit, label %11

11:                                               ; preds = %9
  call void @_ZN12outputStreamC2Eb(ptr noundef nonnull align 8 dereferenceable(56) %2, i1 noundef zeroext false) #23
  store ptr getelementptr inbounds inrange(-16, 40) (i8, ptr @_ZTV17LogStreamImplBase, i64 16), ptr %2, align 8
  %12 = getelementptr inbounds i8, ptr %2, i64 56
  call void @_ZN17LogStreamImplBase10LineBufferC1Ev(ptr noundef nonnull align 8 dereferenceable(88) %12) #23
  %13 = getelementptr inbounds i8, ptr %2, i64 144
  store i32 1, ptr %13, align 8
  %.sroa.21.0..sroa_idx.i.i.i = getelementptr inbounds i8, ptr %2, i64 152
  store ptr @_ZN16LogTagSetMappingILN6LogTag4typeE49ELS1_94ELS1_0ELS1_0ELS1_0ELS1_0EE7_tagsetE, ptr %.sroa.21.0..sroa_idx.i.i.i, align 8
  store ptr getelementptr inbounds inrange(-16, 40) (i8, ptr @_ZTV9LogStream, i64 16), ptr %2, align 8
  %14 = getelementptr inbounds i8, ptr %0, i64 72
  %15 = load ptr, ptr %14, align 8
  %16 = getelementptr inbounds i8, ptr %0, i64 204
  %17 = load i32, ptr %16, align 4
  %18 = getelementptr inbounds i8, ptr %0, i64 208
  %19 = load i8, ptr %18, align 8
  %20 = sext i8 %19 to i32
  %21 = getelementptr inbounds i8, ptr %0, i64 148
  %22 = load i32, ptr %21, align 4
  %23 = icmp ne i32 %22, -1
  call void @_ZN11CompileTask10print_implEP12outputStreamP6MethodiibibPKcbbll(ptr noundef nonnull %2, ptr noundef %15, i32 noundef %17, i32 noundef %20, i1 noundef zeroext %23, i32 noundef %22, i1 noundef zeroext false, ptr noundef nonnull @.str.49, i1 noundef zeroext true, i1 noundef zeroext true, i64 noundef 0, i64 noundef 0) #23
  call void @_ZN13LogStreamImplI15LogTargetHandleED2Ev(ptr noundef nonnull align 8 dereferenceable(160) %2) #23
  br label %_ZN7nmethod18oops_do_log_changeEPKc.exit

_ZN7nmethod18oops_do_log_changeEPKc.exit:         ; preds = %9, %11
  call void @llvm.lifetime.end.p0(i64 160, ptr nonnull %2)
  br label %24

24:                                               ; preds = %1, %6, %_ZN7nmethod18oops_do_log_changeEPKc.exit
  %.0 = phi i1 [ true, %_ZN7nmethod18oops_do_log_changeEPKc.exit ], [ false, %6 ], [ false, %1 ]
  ret i1 %.0
}